; Function Attrs: mustprogress nounwind uwtable
define void @_ZN12PacketDialogD2Ev(ptr noundef nonnull align 8 dereferenceable(968) %0) unnamed_addr #3 align 2 personality ptr @__gxx_personality_v0 {
  store ptr getelementptr inbounds ({ [64 x ptr], [10 x ptr] }, ptr @_ZTV12PacketDialog, i64 0, i32 0, i64 2), ptr %0, align 8
  %2 = getelementptr inbounds i8, ptr %0, i64 16
  store ptr getelementptr inbounds ({ [64 x ptr], [10 x ptr] }, ptr @_ZTV12PacketDialog, i64 0, i32 1, i64 2), ptr %2, align 8
  %3 = getelementptr inbounds i8, ptr %0, i64 136
  %4 = load ptr, ptr %3, align 8
  %5 = icmp eq ptr %4, null
  br i1 %5, label %7, label %6

6:                                                ; preds = %1
  tail call void @_ZdlPv(ptr noundef nonnull %4) #17
  br label %7

7:                                                ; preds = %6, %1
  %8 = getelementptr inbounds i8, ptr %0, i64 504
  invoke void @epan_dissect_cleanup(ptr noundef nonnull %8)
          to label %9 unwind label %29

9:                                                ; preds = %7
  %10 = getelementptr inbounds i8, ptr %0, i64 192
  invoke void @wtap_rec_cleanup(ptr noundef nonnull %10)
          to label %11 unwind label %29

11:                                               ; preds = %9
  %12 = getelementptr inbounds i8, ptr %0, i64 472
  invoke void @ws_buffer_free(ptr noundef nonnull %12)
          to label %13 unwind label %29

13:                                               ; preds = %11
  %14 = getelementptr inbounds i8, ptr %0, i64 152
  %15 = load ptr, ptr %14, align 8
  %.not.i.i.i = icmp eq ptr %15, null
  br i1 %.not.i.i.i, label %_ZN7QStringD2Ev.exit, label %_ZN17QArrayDataPointerIDsE5derefEv.exit.i.i

_ZN17QArrayDataPointerIDsE5derefEv.exit.i.i:      ; preds = %13
  %16 = atomicrmw sub ptr %15, i32 1 seq_cst, align 4
  %.not.i.i = icmp eq i32 %16, 1
  br i1 %.not.i.i, label %17, label %_ZN7QStringD2Ev.exit

17:                                               ; preds = %_ZN17QArrayDataPointerIDsE5derefEv.exit.i.i
  %18 = load ptr, ptr %14, align 8
  tail call void @_ZN10QArrayData10deallocateEPS_xx(ptr noundef %18, i64 noundef 2, i64 noundef 8) #16
  br label %_ZN7QStringD2Ev.exit

_ZN7QStringD2Ev.exit:                             ; preds = %13, %_ZN17QArrayDataPointerIDsE5derefEv.exit.i.i, %17
  store ptr getelementptr inbounds ({ [64 x ptr], [10 x ptr] }, ptr @_ZTV15WiresharkDialog, i64 0, i32 0, i64 2), ptr %0, align 8
  store ptr getelementptr inbounds ({ [64 x ptr], [10 x ptr] }, ptr @_ZTV15WiresharkDialog, i64 0, i32 1, i64 2), ptr %2, align 8
  %19 = getelementptr inbounds i8, ptr %0, i64 104
  %20 = load ptr, ptr %19, align 8
  %.not.i.i.i.i = icmp eq ptr %20, null
  br i1 %.not.i.i.i.i, label %_ZN5QListIPvED2Ev.exit.i, label %_ZN17QArrayDataPointerIPvE5derefEv.exit.i.i.i

_ZN17QArrayDataPointerIPvE5derefEv.exit.i.i.i:    ; preds = %_ZN7QStringD2Ev.exit
  %21 = atomicrmw sub ptr %20, i32 1 seq_cst, align 4
  %.not.i.i.i1 = icmp eq i32 %21, 1
  br i1 %.not.i.i.i1, label %22, label %_ZN5QListIPvED2Ev.exit.i

22:                                               ; preds = %_ZN17QArrayDataPointerIPvE5derefEv.exit.i.i.i
  %23 = load ptr, ptr %19, align 8
  tail call void @_ZN10QArrayData10deallocateEPS_xx(ptr noundef %23, i64 noundef 8, i64 noundef 8) #16
  br label %_ZN5QListIPvED2Ev.exit.i

_ZN5QListIPvED2Ev.exit.i:                         ; preds = %22, %_ZN17QArrayDataPointerIPvE5derefEv.exit.i.i.i, %_ZN7QStringD2Ev.exit
  %24 = getelementptr inbounds i8, ptr %0, i64 80
  %25 = load ptr, ptr %24, align 8
  %.not.i.i.i1.i = icmp eq ptr %25, null
  br i1 %.not.i.i.i1.i, label %_ZN15WiresharkDialogD2Ev.exit, label %_ZN17QArrayDataPointerIDsE5derefEv.exit.i.i.i

_ZN17QArrayDataPointerIDsE5derefEv.exit.i.i.i:    ; preds = %_ZN5QListIPvED2Ev.exit.i
  %26 = atomicrmw sub ptr %25, i32 1 seq_cst, align 4
  %.not.i.i2.i = icmp eq i32 %26, 1
  br i1 %.not.i.i2.i, label %27, label %_ZN15WiresharkDialogD2Ev.exit

27:                                               ; preds = %_ZN17QArrayDataPointerIDsE5derefEv.exit.i.i.i
  %28 = load ptr, ptr %24, align 8
  tail call void @_ZN10QArrayData10deallocateEPS_xx(ptr noundef %28, i64 noundef 2, i64 noundef 8) #16
  br label %_ZN15WiresharkDialogD2Ev.exit

_ZN15WiresharkDialogD2Ev.exit:                    ; preds = %_ZN5QListIPvED2Ev.exit.i, %_ZN17QArrayDataPointerIDsE5derefEv.exit.i.i.i, %27
  tail call void @_ZN19GeometryStateDialogD2Ev(ptr noundef nonnull align 8 dereferenceable(64) %0) #16
  ret void

29:                                               ; preds = %11, %9, %7
  %30 = landingpad { ptr, i32 }
          catch ptr null
  %31 = extractvalue { ptr, i32 } %30, 0
  tail call void @__clang_call_terminate(ptr %31) #18
  unreachable
}